target datalayout = "e-m:e-p270:32:32-p271:32:32-p272:64:64-i64:64-i128:128-f80:128-n8:16:32:64-S128"
target triple = "x86_64-pc-linux-gnu"

%"class.boost::urls::url_base" = type { ptr, %"class.boost::urls::url_view_base", ptr, i64 }
%"class.boost::urls::url_view_base" = type { [8 x i8], %"struct.boost::urls::detail::url_impl", ptr }
%"struct.boost::urls::detail::url_impl" = type <{ ptr, [8 x i64], [7 x i64], i64, i64, [16 x i8], i16, [2 x i8], i32, i16, i8, [5 x i8] }>

; Function Attrs: inlinehint mustprogress nounwind uwtable
define linkonce_odr void @_ZSt4swapIPKN5boost4urls6detail8url_implEENSt9enable_ifIXsr6__and_ISt6__not_ISt15__is_tuple_likeIT_EESt21is_move_constructibleIS9_ESt18is_move_assignableIS9_EEE5valueEvE4typeERS9_SI_(ptr noundef nonnull align 8 dereferenceable(8) %0, ptr noundef nonnull align 8 dereferenceable(8) %1) #1 comdat {
  %3 = alloca ptr, align 8
  %4 = alloca ptr, align 8
  %5 = alloca ptr, align 8
  store ptr %0, ptr %3, align 8, !tbaa !7
  store ptr %1, ptr %4, align 8, !tbaa !7
  call void @llvm.lifetime.start.p0(i64 8, ptr %5) #17
  %6 = load ptr, ptr %3, align 8, !tbaa !7
  %7 = load ptr, ptr %6, align 8, !tbaa !7
  store ptr %7, ptr %5, align 8, !tbaa !7
  %8 = load ptr, ptr %4, align 8, !tbaa !7
  %9 = load ptr, ptr %8, align 8, !tbaa !7
  %10 = load ptr, ptr %3, align 8, !tbaa !7
  store ptr %9, ptr %10, align 8, !tbaa !7
  %11 = load ptr, ptr %5, align 8, !tbaa !7
  %12 = load ptr, ptr %4, align 8, !tbaa !7
  store ptr %11, ptr %12, align 8, !tbaa !7
  call void @llvm.lifetime.end.p0(i64 8, ptr %5) #17
  ret void
}

; Function Attrs: inlinehint mustprogress nounwind uwtable
define linkonce_odr void @_ZSt4swapIN5boost4urls6detail8url_implEENSt9enable_ifIXsr6__and_ISt6__not_ISt15__is_tuple_likeIT_EESt21is_move_constructibleIS7_ESt18is_move_assignableIS7_EEE5valueEvE4typeERS7_SG_(ptr noundef nonnull align 8 dereferenceable(171) %0, ptr noundef nonnull align 8 dereferenceable(171) %1) #1 comdat {
  %3 = alloca ptr, align 8
  %4 = alloca ptr, align 8
  %5 = alloca %"struct.boost::urls::detail::url_impl", align 8
  store ptr %0, ptr %3, align 8, !tbaa !7
  store ptr %1, ptr %4, align 8, !tbaa !7
  call void @llvm.lifetime.start.p0(i64 176, ptr %5) #17
  %6 = load ptr, ptr %3, align 8, !tbaa !7
  call void @llvm.memcpy.p0.p0.i64(ptr align 8 %5, ptr align 8 %6, i64 176, i1 false)
  %7 = load ptr, ptr %4, align 8, !tbaa !7
  %8 = load ptr, ptr %3, align 8, !tbaa !7
  call void @llvm.memcpy.p0.p0.i64(ptr align 8 %8, ptr align 8 %7, i64 171, i1 false)
  %9 = load ptr, ptr %4, align 8, !tbaa !7
  call void @llvm.memcpy.p0.p0.i64(ptr align 8 %9, ptr align 8 %5, i64 171, i1 false)
  call void @llvm.lifetime.end.p0(i64 176, ptr %5) #17
  ret void
}

; Function Attrs: inlinehint mustprogress nounwind uwtable
define linkonce_odr void @_ZSt4swapImENSt9enable_ifIXsr6__and_ISt6__not_ISt15__is_tuple_likeIT_EESt21is_move_constructibleIS3_ESt18is_move_assignableIS3_EEE5valueEvE4typeERS3_SC_(ptr noundef nonnull align 8 dereferenceable(8) %0, ptr noundef nonnull align 8 dereferenceable(8) %1) #1 comdat {
  %3 = alloca ptr, align 8
  %4 = alloca ptr, align 8
  %5 = alloca i64, align 8
  store ptr %0, ptr %3, align 8, !tbaa !7
  store ptr %1, ptr %4, align 8, !tbaa !7
  call void @llvm.lifetime.start.p0(i64 8, ptr %5) #17
  %6 = load ptr, ptr %3, align 8, !tbaa !7
  %7 = load i64, ptr %6, align 8, !tbaa !27
  store i64 %7, ptr %5, align 8, !tbaa !27
  %8 = load ptr, ptr %4, align 8, !tbaa !7
  %9 = load i64, ptr %8, align 8, !tbaa !27
  %10 = load ptr, ptr %3, align 8, !tbaa !7
  store i64 %9, ptr %10, align 8, !tbaa !27
  %11 = load i64, ptr %5, align 8, !tbaa !27
  %12 = load ptr, ptr %4, align 8, !tbaa !7
  store i64 %11, ptr %12, align 8, !tbaa !27
  call void @llvm.lifetime.end.p0(i64 8, ptr %5) #17
  ret void
}

; Function Attrs: inlinehint mustprogress nounwind uwtable
define linkonce_odr void @_ZSt4swapIPcENSt9enable_ifIXsr6__and_ISt6__not_ISt15__is_tuple_likeIT_EESt21is_move_constructibleIS4_ESt18is_move_assignableIS4_EEE5valueEvE4typeERS4_SD_(ptr noundef nonnull align 8 dereferenceable(8) %0, ptr noundef nonnull align 8 dereferenceable(8) %1) #1 comdat {
  %3 = alloca ptr, align 8
  %4 = alloca ptr, align 8
  %5 = alloca ptr, align 8
  store ptr %0, ptr %3, align 8, !tbaa !7
  store ptr %1, ptr %4, align 8, !tbaa !7
  call void @llvm.lifetime.start.p0(i64 8, ptr %5) #17
  %6 = load ptr, ptr %3, align 8, !tbaa !7
  %7 = load ptr, ptr %6, align 8, !tbaa !7
  store ptr %7, ptr %5, align 8, !tbaa !7
  %8 = load ptr, ptr %4, align 8, !tbaa !7
  %9 = load ptr, ptr %8, align 8, !tbaa !7
  %10 = load ptr, ptr %3, align 8, !tbaa !7
  store ptr %9, ptr %10, align 8, !tbaa !7
  %11 = load ptr, ptr %5, align 8, !tbaa !7
  %12 = load ptr, ptr %4, align 8, !tbaa !7
  store ptr %11, ptr %12, align 8, !tbaa !7
  call void @llvm.lifetime.end.p0(i64 8, ptr %5) #17
  ret void
}

; Function Attrs: mustprogress nounwind uwtable
define void @_ZN5boost4urls3url4swapERS1_(ptr noundef nonnull align 8 dereferenceable(216) %0, ptr noundef nonnull align 8 dereferenceable(216) %1) #2 align 2 {
  %3 = alloca ptr, align 8
  %4 = alloca ptr, align 8
  store ptr %0, ptr %3, align 8, !tbaa !7
  store ptr %1, ptr %4, align 8, !tbaa !7
  %5 = load ptr, ptr %3, align 8
  %6 = load ptr, ptr %4, align 8, !tbaa !7
  %7 = icmp eq ptr %5, %6
  br i1 %7, label %8, label %9

8:                                                ; preds = %2
  br label %53

9:                                                ; preds = %2
  %10 = getelementptr inbounds nuw %"class.boost::urls::url_base", ptr %5, i32 0, i32 2
  %11 = load ptr, ptr %4, align 8, !tbaa !7
  %12 = getelementptr inbounds nuw %"class.boost::urls::url_base", ptr %11, i32 0, i32 2
  call void @_ZSt4swapIPcENSt9enable_ifIXsr6__and_ISt6__not_ISt15__is_tuple_likeIT_EESt21is_move_constructibleIS4_ESt18is_move_assignableIS4_EEE5valueEvE4typeERS4_SD_(ptr noundef nonnull align 8 dereferenceable(8) %10, ptr noundef nonnull align 8 dereferenceable(8) %12) #17
  %13 = getelementptr inbounds nuw %"class.boost::urls::url_base", ptr %5, i32 0, i32 3
  %14 = load ptr, ptr %4, align 8, !tbaa !7
  %15 = getelementptr inbounds nuw %"class.boost::urls::url_base", ptr %14, i32 0, i32 3
  call void @_ZSt4swapImENSt9enable_ifIXsr6__and_ISt6__not_ISt15__is_tuple_likeIT_EESt21is_move_constructibleIS3_ESt18is_move_assignableIS3_EEE5valueEvE4typeERS3_SC_(ptr noundef nonnull align 8 dereferenceable(8) %13, ptr noundef nonnull align 8 dereferenceable(8) %15) #17
  %16 = getelementptr inbounds i8, ptr %5, i64 8
  %17 = getelementptr inbounds nuw %"class.boost::urls::url_view_base", ptr %16, i32 0, i32 1
  %18 = load ptr, ptr %4, align 8, !tbaa !7
  %19 = getelementptr inbounds i8, ptr %18, i64 8
  %20 = getelementptr inbounds nuw %"class.boost::urls::url_view_base", ptr %19, i32 0, i32 1
  call void @_ZSt4swapIN5boost4urls6detail8url_implEENSt9enable_ifIXsr6__and_ISt6__not_ISt15__is_tuple_likeIT_EESt21is_move_constructibleIS7_ESt18is_move_assignableIS7_EEE5valueEvE4typeERS7_SG_(ptr noundef nonnull align 8 dereferenceable(171) %17, ptr noundef nonnull align 8 dereferenceable(171) %20) #17
  %21 = getelementptr inbounds i8, ptr %5, i64 8
  %22 = getelementptr inbounds nuw %"class.boost::urls::url_view_base", ptr %21, i32 0, i32 2
  %23 = load ptr, ptr %4, align 8, !tbaa !7
  %24 = getelementptr inbounds i8, ptr %23, i64 8
  %25 = getelementptr inbounds nuw %"class.boost::urls::url_view_base", ptr %24, i32 0, i32 2
  call void @_ZSt4swapIPKN5boost4urls6detail8url_implEENSt9enable_ifIXsr6__and_ISt6__not_ISt15__is_tuple_likeIT_EESt21is_move_constructibleIS9_ESt18is_move_assignableIS9_EEE5valueEvE4typeERS9_SI_(ptr noundef nonnull align 8 dereferenceable(8) %22, ptr noundef nonnull align 8 dereferenceable(8) %25) #17
  %26 = getelementptr inbounds i8, ptr %5, i64 8
  %27 = getelementptr inbounds nuw %"class.boost::urls::url_view_base", ptr %26, i32 0, i32 2
  %28 = load ptr, ptr %27, align 8, !tbaa !45
  %29 = load ptr, ptr %4, align 8, !tbaa !7
  %30 = getelementptr inbounds i8, ptr %29, i64 8
  %31 = getelementptr inbounds nuw %"class.boost::urls::url_view_base", ptr %30, i32 0, i32 1
  %32 = icmp eq ptr %28, %31
  br i1 %32, label %33, label %38

33:                                               ; preds = %9
  %34 = getelementptr inbounds i8, ptr %5, i64 8
  %35 = getelementptr inbounds nuw %"class.boost::urls::url_view_base", ptr %34, i32 0, i32 1
  %36 = getelementptr inbounds i8, ptr %5, i64 8
  %37 = getelementptr inbounds nuw %"class.boost::urls::url_view_base", ptr %36, i32 0, i32 2
  store ptr %35, ptr %37, align 8, !tbaa !45
  br label %38

38:                                               ; preds = %33, %9
  %39 = load ptr, ptr %4, align 8, !tbaa !7
  %40 = getelementptr inbounds i8, ptr %39, i64 8
  %41 = getelementptr inbounds nuw %"class.boost::urls::url_view_base", ptr %40, i32 0, i32 2
  %42 = load ptr, ptr %41, align 8, !tbaa !45
  %43 = getelementptr inbounds i8, ptr %5, i64 8
  %44 = getelementptr inbounds nuw %"class.boost::urls::url_view_base", ptr %43, i32 0, i32 1
  %45 = icmp eq ptr %42, %44
  br i1 %45, label %46, label %53

46:                                               ; preds = %38
  %47 = load ptr, ptr %4, align 8, !tbaa !7
  %48 = getelementptr inbounds i8, ptr %47, i64 8
  %49 = getelementptr inbounds nuw %"class.boost::urls::url_view_base", ptr %48, i32 0, i32 1
  %50 = load ptr, ptr %4, align 8, !tbaa !7
  %51 = getelementptr inbounds i8, ptr %50, i64 8
  %52 = getelementptr inbounds nuw %"class.boost::urls::url_view_base", ptr %51, i32 0, i32 2
  store ptr %49, ptr %52, align 8, !tbaa !45
  br label %53

53:                                               ; preds = %8, %46, %38
  ret void
}