; Function Attrs: mustprogress nofree norecurse nosync nounwind willreturn memory(argmem: readwrite) uwtable
define void @_ZN5boost4urls3url4swapERS1_(ptr noundef nonnull align 8 dereferenceable(216) %0, ptr noundef nonnull align 8 dereferenceable(216) %1) local_unnamed_addr #10 align 2 {
  %3 = alloca %"struct.boost::urls::detail::url_impl", align 8
  %4 = icmp eq ptr %0, %1
  br i1 %4, label %27, label %5

5:                                                ; preds = %2
  %6 = getelementptr inbounds nuw i8, ptr %0, i64 200
  %7 = getelementptr inbounds nuw i8, ptr %1, i64 200
  %8 = load ptr, ptr %6, align 8, !tbaa !34
  %9 = load ptr, ptr %7, align 8, !tbaa !34
  store ptr %9, ptr %6, align 8, !tbaa !34
  store ptr %8, ptr %7, align 8, !tbaa !34
  %10 = getelementptr inbounds nuw i8, ptr %0, i64 208
  %11 = getelementptr inbounds nuw i8, ptr %1, i64 208
  %12 = load i64, ptr %10, align 8, !tbaa !35
  %13 = load i64, ptr %11, align 8, !tbaa !35
  store i64 %13, ptr %10, align 8, !tbaa !35
  store i64 %12, ptr %11, align 8, !tbaa !35
  %14 = getelementptr inbounds i8, ptr %0, i64 16
  %15 = getelementptr inbounds i8, ptr %1, i64 16
  call void @llvm.lifetime.start.p0(i64 176, ptr nonnull %3)
  call void @llvm.memcpy.p0.p0.i64(ptr noundef nonnull align 8 dereferenceable(176) %3, ptr noundef nonnull align 8 dereferenceable(176) %14, i64 176, i1 false)
  tail call void @llvm.memcpy.p0.p0.i64(ptr noundef nonnull align 8 dereferenceable(171) %14, ptr noundef nonnull align 8 dereferenceable(171) %15, i64 171, i1 false)
  call void @llvm.memcpy.p0.p0.i64(ptr noundef nonnull align 8 dereferenceable(171) %15, ptr noundef nonnull align 8 dereferenceable(171) %3, i64 171, i1 false)
  call void @llvm.lifetime.end.p0(i64 176, ptr nonnull %3)
  %16 = getelementptr inbounds i8, ptr %0, i64 192
  %17 = getelementptr inbounds i8, ptr %1, i64 192
  %18 = load ptr, ptr %16, align 8, !tbaa !34
  %19 = load ptr, ptr %17, align 8, !tbaa !34
  store ptr %19, ptr %16, align 8, !tbaa !34
  store ptr %18, ptr %17, align 8, !tbaa !34
  %20 = load ptr, ptr %16, align 8, !tbaa !31
  %21 = icmp eq ptr %20, %15
  br i1 %21, label %22, label %23

22:                                               ; preds = %5
  store ptr %14, ptr %16, align 8, !tbaa !31
  %.pre = load ptr, ptr %17, align 8, !tbaa !31
  br label %23

23:                                               ; preds = %22, %5
  %24 = phi ptr [ %.pre, %22 ], [ %18, %5 ]
  %25 = icmp eq ptr %24, %14
  br i1 %25, label %26, label %27

26:                                               ; preds = %23
  store ptr %15, ptr %17, align 8, !tbaa !31
  br label %27

27:                                               ; preds = %2, %26, %23
  ret void
}